target datalayout = "e-m:e-p270:32:32-p271:32:32-p272:64:64-i64:64-i128:128-f80:128-n8:16:32:64-S128"
target triple = "x86_64-pc-linux-gnu"

%struct.AVFilterContext = type { ptr, ptr, ptr, ptr, ptr, i32, ptr, ptr, i32, ptr, ptr, i32, i32, ptr, ptr, ptr, ptr, i32, ptr, i32, i32 }
%struct.AudioFIRContext = type { ptr, float, float, float, i32, float, float, float, i32, i32, float, i32, i32, i32, %struct.AVRational, i32, i32, i32, i32, i32, i32, i32, i32, [32 x i32], [32 x i32], [32 x i32], [32 x i32], [32 x i32], i32, i32, i32, ptr, ptr, [32 x [1024 x %struct.AudioFIRSegment]], ptr, [2 x ptr], [2 x ptr], [32 x ptr], [32 x ptr], i32, i32, i64, %struct.AudioFIRDSPContext, ptr }
%struct.AVRational = type { i32, i32 }
%struct.AudioFIRSegment = type { i32, i32, i32, i32, i32, i32, i32, ptr, ptr, ptr, ptr, ptr, ptr, ptr, ptr, ptr, ptr, ptr, ptr, ptr, ptr, ptr, ptr, ptr }
%struct.AudioFIRDSPContext = type { ptr, ptr }
%struct.AVChannelLayout = type { i32, i32, %union.anon.1, ptr }
%union.anon.1 = type { i64 }
%struct.AVFilterFormatsConfig = type { ptr, ptr, ptr, ptr, ptr }

@query_formats.sample_fmts = internal constant [3 x [3 x i32]] [[3 x i32] [i32 8, i32 9, i32 -1], [3 x i32] [i32 8, i32 -1, i32 0], [3 x i32] [i32 9, i32 -1, i32 0]], align 16

; Function Attrs: nounwind uwtable
define internal i32 @query_formats(ptr noundef %0, ptr noundef %1, ptr noundef %2) #1 {
  %4 = alloca i32, align 4
  %5 = alloca ptr, align 8
  %6 = alloca ptr, align 8
  %7 = alloca ptr, align 8
  %8 = alloca ptr, align 8
  %9 = alloca i32, align 4
  %10 = alloca ptr, align 8
  %11 = alloca ptr, align 8
  %12 = alloca i32, align 4
  %13 = alloca %struct.AVChannelLayout, align 8
  %14 = alloca i32, align 4
  store ptr %0, ptr %5, align 8, !tbaa !4
  store ptr %1, ptr %6, align 8, !tbaa !52
  store ptr %2, ptr %7, align 8, !tbaa !52
  call void @llvm.lifetime.start.p0(i64 8, ptr %8) #10
  %15 = load ptr, ptr %5, align 8, !tbaa !4
  %16 = getelementptr inbounds nuw %struct.AVFilterContext, ptr %15, i32 0, i32 9
  %17 = load ptr, ptr %16, align 8, !tbaa !9
  store ptr %17, ptr %8, align 8, !tbaa !22
  call void @llvm.lifetime.start.p0(i64 4, ptr %9) #10
  %18 = load ptr, ptr %8, align 8, !tbaa !22
  %19 = getelementptr inbounds nuw %struct.AudioFIRContext, ptr %18, i32 0, i32 8
  %20 = load i32, ptr %19, align 4, !tbaa !54
  %21 = icmp ne i32 %20, 0
  br i1 %21, label %83, label %22

22:                                               ; preds = %3
  call void @llvm.lifetime.start.p0(i64 8, ptr %10) #10
  store ptr null, ptr %10, align 8, !tbaa !55
  call void @llvm.lifetime.start.p0(i64 8, ptr %11) #10
  %23 = call ptr @ff_all_channel_counts()
  store ptr %23, ptr %11, align 8, !tbaa !55
  %24 = load ptr, ptr %11, align 8, !tbaa !55
  %25 = load ptr, ptr %6, align 8, !tbaa !52
  %26 = getelementptr inbounds ptr, ptr %25, i64 0
  %27 = load ptr, ptr %26, align 8, !tbaa !57
  %28 = getelementptr inbounds nuw %struct.AVFilterFormatsConfig, ptr %27, i32 0, i32 2
  %29 = call i32 @ff_channel_layouts_ref(ptr noundef %24, ptr noundef %28)
  store i32 %29, ptr %9, align 4, !tbaa !40
  %30 = icmp slt i32 %29, 0
  br i1 %30, label %31, label %33

31:                                               ; preds = %22
  %32 = load i32, ptr %9, align 4, !tbaa !40
  store i32 %32, ptr %4, align 4
  store i32 1, ptr %12, align 4
  br label %80

33:                                               ; preds = %22
  %34 = load ptr, ptr %11, align 8, !tbaa !55
  %35 = load ptr, ptr %7, align 8, !tbaa !52
  %36 = getelementptr inbounds ptr, ptr %35, i64 0
  %37 = load ptr, ptr %36, align 8, !tbaa !57
  %38 = getelementptr inbounds nuw %struct.AVFilterFormatsConfig, ptr %37, i32 0, i32 2
  %39 = call i32 @ff_channel_layouts_ref(ptr noundef %34, ptr noundef %38)
  store i32 %39, ptr %9, align 4, !tbaa !40
  %40 = icmp slt i32 %39, 0
  br i1 %40, label %41, label %43

41:                                               ; preds = %33
  %42 = load i32, ptr %9, align 4, !tbaa !40
  store i32 %42, ptr %4, align 4
  store i32 1, ptr %12, align 4
  br label %80

43:                                               ; preds = %33
  %44 = getelementptr inbounds nuw %struct.AVChannelLayout, ptr %13, i32 0, i32 0
  store i32 1, ptr %44, align 8, !tbaa !59
  %45 = getelementptr inbounds nuw %struct.AVChannelLayout, ptr %13, i32 0, i32 1
  store i32 1, ptr %45, align 4, !tbaa !61
  %46 = getelementptr inbounds nuw %struct.AVChannelLayout, ptr %13, i32 0, i32 2
  store i64 4, ptr %46, align 8, !tbaa !41
  %47 = getelementptr inbounds nuw %struct.AVChannelLayout, ptr %13, i32 0, i32 3
  store ptr null, ptr %47, align 8, !tbaa !62
  %48 = call i32 @ff_add_channel_layout(ptr noundef %10, ptr noundef %13)
  store i32 %48, ptr %9, align 4, !tbaa !40
  %49 = load i32, ptr %9, align 4, !tbaa !40
  %50 = icmp ne i32 %49, 0
  br i1 %50, label %51, label %53

51:                                               ; preds = %43
  %52 = load i32, ptr %9, align 4, !tbaa !40
  store i32 %52, ptr %4, align 4
  store i32 1, ptr %12, align 4
  br label %80

53:                                               ; preds = %43
  call void @llvm.lifetime.start.p0(i64 4, ptr %14) #10
  store i32 1, ptr %14, align 4, !tbaa !40
  br label %54

54:                                               ; preds = %74, %53
  %55 = load i32, ptr %14, align 4, !tbaa !40
  %56 = load ptr, ptr %5, align 8, !tbaa !4
  %57 = getelementptr inbounds nuw %struct.AVFilterContext, ptr %56, i32 0, i32 5
  %58 = load i32, ptr %57, align 8, !tbaa !63
  %59 = icmp ult i32 %55, %58
  br i1 %59, label %61, label %60

60:                                               ; preds = %54
  store i32 2, ptr %12, align 4
  br label %77

61:                                               ; preds = %54
  %62 = load ptr, ptr %10, align 8, !tbaa !55
  %63 = load ptr, ptr %6, align 8, !tbaa !52
  %64 = load i32, ptr %14, align 4, !tbaa !40
  %65 = sext i32 %64 to i64
  %66 = getelementptr inbounds ptr, ptr %63, i64 %65
  %67 = load ptr, ptr %66, align 8, !tbaa !57
  %68 = getelementptr inbounds nuw %struct.AVFilterFormatsConfig, ptr %67, i32 0, i32 2
  %69 = call i32 @ff_channel_layouts_ref(ptr noundef %62, ptr noundef %68)
  store i32 %69, ptr %9, align 4, !tbaa !40
  %70 = icmp slt i32 %69, 0
  br i1 %70, label %71, label %73

71:                                               ; preds = %61
  %72 = load i32, ptr %9, align 4, !tbaa !40
  store i32 %72, ptr %4, align 4
  store i32 1, ptr %12, align 4
  br label %77

73:                                               ; preds = %61
  br label %74

74:                                               ; preds = %73
  %75 = load i32, ptr %14, align 4, !tbaa !40
  %76 = add nsw i32 %75, 1
  store i32 %76, ptr %14, align 4, !tbaa !40
  br label %54, !llvm.loop !64

77:                                               ; preds = %71, %60
  call void @llvm.lifetime.end.p0(i64 4, ptr %14) #10
  %78 = load i32, ptr %12, align 4
  switch i32 %78, label %80 [
    i32 2, label %79
  ]

79:                                               ; preds = %77
  store i32 0, ptr %12, align 4
  br label %80

80:                                               ; preds = %79, %77, %51, %41, %31
  call void @llvm.lifetime.end.p0(i64 8, ptr %11) #10
  call void @llvm.lifetime.end.p0(i64 8, ptr %10) #10
  %81 = load i32, ptr %12, align 4
  switch i32 %81, label %98 [
    i32 0, label %82
  ]

82:                                               ; preds = %80
  br label %83

83:                                               ; preds = %82, %3
  %84 = load ptr, ptr %5, align 8, !tbaa !4
  %85 = load ptr, ptr %6, align 8, !tbaa !52
  %86 = load ptr, ptr %7, align 8, !tbaa !52
  %87 = load ptr, ptr %8, align 8, !tbaa !22
  %88 = getelementptr inbounds nuw %struct.AudioFIRContext, ptr %87, i32 0, i32 21
  %89 = load i32, ptr %88, align 4, !tbaa !65
  %90 = sext i32 %89 to i64
  %91 = getelementptr inbounds [3 x [3 x i32]], ptr @query_formats.sample_fmts, i64 0, i64 %90
  %92 = getelementptr inbounds [3 x i32], ptr %91, i64 0, i64 0
  %93 = call i32 @ff_set_common_formats_from_list2(ptr noundef %84, ptr noundef %85, ptr noundef %86, ptr noundef %92)
  store i32 %93, ptr %9, align 4, !tbaa !40
  %94 = icmp slt i32 %93, 0
  br i1 %94, label %95, label %97

95:                                               ; preds = %83
  %96 = load i32, ptr %9, align 4, !tbaa !40
  store i32 %96, ptr %4, align 4
  store i32 1, ptr %12, align 4
  br label %98

97:                                               ; preds = %83
  store i32 0, ptr %4, align 4
  store i32 1, ptr %12, align 4
  br label %98

98:                                               ; preds = %97, %95, %80
  call void @llvm.lifetime.end.p0(i64 4, ptr %9) #10
  call void @llvm.lifetime.end.p0(i64 8, ptr %8) #10
  %99 = load i32, ptr %4, align 4
  ret i32 %99
}