; Function Attrs: nounwind uwtable
define internal i32 @query_formats(ptr noundef %0, ptr noundef %1, ptr noundef %2) #1 {
  %4 = alloca ptr, align 8
  %5 = alloca %struct.AVChannelLayout, align 8
  %6 = getelementptr inbounds nuw i8, ptr %0, i64 72
  %7 = load ptr, ptr %6, align 8, !tbaa !4
  %8 = getelementptr inbounds nuw i8, ptr %7, i64 36
  %9 = load i32, ptr %8, align 4, !tbaa !56
  %.not = icmp eq i32 %9, 0
  br i1 %.not, label %10, label %37

10:                                               ; preds = %3
  call void @llvm.lifetime.start.p0(i64 8, ptr nonnull %4) #10
  store ptr null, ptr %4, align 8, !tbaa !57
  %11 = tail call ptr @ff_all_channel_counts() #10
  %12 = load ptr, ptr %1, align 8, !tbaa !59
  %13 = getelementptr inbounds nuw i8, ptr %12, i64 16
  %14 = tail call i32 @ff_channel_layouts_ref(ptr noundef %11, ptr noundef nonnull %13) #10
  %15 = icmp slt i32 %14, 0
  br i1 %15, label %.thread, label %16

16:                                               ; preds = %10
  %17 = load ptr, ptr %2, align 8, !tbaa !59
  %18 = getelementptr inbounds nuw i8, ptr %17, i64 16
  %19 = tail call i32 @ff_channel_layouts_ref(ptr noundef %11, ptr noundef nonnull %18) #10
  %20 = icmp slt i32 %19, 0
  br i1 %20, label %.thread, label %21

21:                                               ; preds = %16
  store i32 1, ptr %5, align 8, !tbaa !61
  %22 = getelementptr inbounds nuw i8, ptr %5, i64 4
  store i32 1, ptr %22, align 4, !tbaa !63
  %23 = getelementptr inbounds nuw i8, ptr %5, i64 8
  store i64 4, ptr %23, align 8, !tbaa !39
  %24 = getelementptr inbounds nuw i8, ptr %5, i64 16
  store ptr null, ptr %24, align 8, !tbaa !64
  %25 = call i32 @ff_add_channel_layout(ptr noundef nonnull %4, ptr noundef nonnull %5) #10
  %.not32 = icmp eq i32 %25, 0
  br i1 %.not32, label %.preheader, label %.thread

.preheader:                                       ; preds = %21
  %26 = getelementptr inbounds nuw i8, ptr %0, i64 40
  %27 = load i32, ptr %26, align 8, !tbaa !65
  %.not33.not36 = icmp ugt i32 %27, 1
  br i1 %.not33.not36, label %.lr.ph, label %._crit_edge

28:                                               ; preds = %.lr.ph
  %indvars.iv.next = add nuw nsw i64 %indvars.iv, 1
  %29 = load i32, ptr %26, align 8, !tbaa !65
  %30 = zext i32 %29 to i64
  %.not33.not = icmp samesign ult i64 %indvars.iv.next, %30
  br i1 %.not33.not, label %.lr.ph, label %._crit_edge, !llvm.loop !66

.lr.ph:                                           ; preds = %.preheader, %28
  %indvars.iv = phi i64 [ %indvars.iv.next, %28 ], [ 1, %.preheader ]
  %31 = load ptr, ptr %4, align 8, !tbaa !57
  %32 = getelementptr inbounds nuw ptr, ptr %1, i64 %indvars.iv
  %33 = load ptr, ptr %32, align 8, !tbaa !59
  %34 = getelementptr inbounds nuw i8, ptr %33, i64 16
  %35 = call i32 @ff_channel_layouts_ref(ptr noundef %31, ptr noundef nonnull %34) #10
  %36 = icmp slt i32 %35, 0
  br i1 %36, label %.thread, label %28

.thread:                                          ; preds = %.lr.ph, %10, %16, %21
  %.025.ph = phi i32 [ %25, %21 ], [ %19, %16 ], [ %14, %10 ], [ %35, %.lr.ph ]
  call void @llvm.lifetime.end.p0(i64 8, ptr nonnull %4) #10
  br label %43

._crit_edge:                                      ; preds = %28, %.preheader
  call void @llvm.lifetime.end.p0(i64 8, ptr nonnull %4) #10
  br label %37

37:                                               ; preds = %._crit_edge, %3
  %38 = getelementptr inbounds nuw i8, ptr %7, i64 92
  %39 = load i32, ptr %38, align 4, !tbaa !67
  %40 = sext i32 %39 to i64
  %41 = getelementptr inbounds [3 x [3 x i32]], ptr @query_formats.sample_fmts, i64 0, i64 %40
  %42 = call i32 @ff_set_common_formats_from_list2(ptr noundef nonnull %0, ptr noundef %1, ptr noundef %2, ptr noundef nonnull %41) #10
  %. = call i32 @llvm.smin.i32(i32 %42, i32 0)
  br label %43

43:                                               ; preds = %.thread, %37
  %.2 = phi i32 [ %., %37 ], [ %.025.ph, %.thread ]
  ret i32 %.2
}